target datalayout = "e-m:e-p270:32:32-p271:32:32-p272:64:64-i64:64-i128:128-f80:128-n8:16:32:64-S128"
target triple = "x86_64-pc-linux-gnu"

%struct.AVTimecode = type { i32, i32, %struct.AVRational, i32 }
%struct.AVRational = type { i32, i32 }

; Function Attrs: nounwind uwtable
define i32 @av_timecode_adjust_ntsc_framenum2(i32 noundef %0, i32 noundef %1) #0 {
  %3 = alloca i32, align 4
  %4 = alloca i32, align 4
  %5 = alloca i32, align 4
  %6 = alloca i32, align 4
  %7 = alloca i32, align 4
  %8 = alloca i32, align 4
  %9 = alloca i32, align 4
  %10 = alloca i32, align 4
  store i32 %0, ptr %4, align 4, !tbaa !4
  store i32 %1, ptr %5, align 4, !tbaa !4
  call void @llvm.lifetime.start.p0(i64 4, ptr %6) #8
  store i32 0, ptr %6, align 4, !tbaa !4
  call void @llvm.lifetime.start.p0(i64 4, ptr %7) #8
  call void @llvm.lifetime.start.p0(i64 4, ptr %8) #8
  call void @llvm.lifetime.start.p0(i64 4, ptr %9) #8
  %11 = load i32, ptr %5, align 4, !tbaa !4
  %12 = icmp ne i32 %11, 0
  br i1 %12, label %13, label %24

13:                                               ; preds = %2
  %14 = load i32, ptr %5, align 4, !tbaa !4
  %15 = srem i32 %14, 30
  %16 = icmp eq i32 %15, 0
  br i1 %16, label %17, label %24

17:                                               ; preds = %13
  %18 = load i32, ptr %5, align 4, !tbaa !4
  %19 = sdiv i32 %18, 30
  %20 = mul nsw i32 %19, 2
  store i32 %20, ptr %6, align 4, !tbaa !4
  %21 = load i32, ptr %5, align 4, !tbaa !4
  %22 = sdiv i32 %21, 30
  %23 = mul nsw i32 %22, 17982
  store i32 %23, ptr %9, align 4, !tbaa !4
  br label %26

24:                                               ; preds = %13, %2
  %25 = load i32, ptr %4, align 4, !tbaa !4
  store i32 %25, ptr %3, align 4
  store i32 1, ptr %10, align 4
  br label %48

26:                                               ; preds = %17
  %27 = load i32, ptr %4, align 4, !tbaa !4
  %28 = load i32, ptr %9, align 4, !tbaa !4
  %29 = sdiv i32 %27, %28
  store i32 %29, ptr %7, align 4, !tbaa !4
  %30 = load i32, ptr %4, align 4, !tbaa !4
  %31 = load i32, ptr %9, align 4, !tbaa !4
  %32 = srem i32 %30, %31
  store i32 %32, ptr %8, align 4, !tbaa !4
  %33 = load i32, ptr %4, align 4, !tbaa !4
  %34 = load i32, ptr %6, align 4, !tbaa !4
  %35 = mul i32 9, %34
  %36 = load i32, ptr %7, align 4, !tbaa !4
  %37 = mul i32 %35, %36
  %38 = add i32 %33, %37
  %39 = load i32, ptr %6, align 4, !tbaa !4
  %40 = load i32, ptr %8, align 4, !tbaa !4
  %41 = load i32, ptr %6, align 4, !tbaa !4
  %42 = sub nsw i32 %40, %41
  %43 = load i32, ptr %9, align 4, !tbaa !4
  %44 = sdiv i32 %43, 10
  %45 = sdiv i32 %42, %44
  %46 = mul nsw i32 %39, %45
  %47 = add i32 %38, %46
  store i32 %47, ptr %3, align 4
  store i32 1, ptr %10, align 4
  br label %48

48:                                               ; preds = %26, %24
  call void @llvm.lifetime.end.p0(i64 4, ptr %9) #8
  call void @llvm.lifetime.end.p0(i64 4, ptr %8) #8
  call void @llvm.lifetime.end.p0(i64 4, ptr %7) #8
  call void @llvm.lifetime.end.p0(i64 4, ptr %6) #8
  %49 = load i32, ptr %3, align 4
  ret i32 %49
}

; Function Attrs: nounwind uwtable
define i32 @av_timecode_get_smpte_from_framenum(ptr noundef %0, i32 noundef %1) #0 {
  %3 = alloca ptr, align 8
  %4 = alloca i32, align 4
  %5 = alloca i32, align 4
  %6 = alloca i32, align 4
  %7 = alloca i32, align 4
  %8 = alloca i32, align 4
  %9 = alloca i32, align 4
  %10 = alloca i32, align 4
  store ptr %0, ptr %3, align 8, !tbaa !8
  store i32 %1, ptr %4, align 4, !tbaa !4
  call void @llvm.lifetime.start.p0(i64 4, ptr %5) #8
  %11 = load ptr, ptr %3, align 8, !tbaa !8
  %12 = getelementptr inbounds nuw %struct.AVTimecode, ptr %11, i32 0, i32 3
  %13 = load i32, ptr %12, align 4, !tbaa !10
  store i32 %13, ptr %5, align 4, !tbaa !4
  call void @llvm.lifetime.start.p0(i64 4, ptr %6) #8
  %14 = load ptr, ptr %3, align 8, !tbaa !8
  %15 = getelementptr inbounds nuw %struct.AVTimecode, ptr %14, i32 0, i32 1
  %16 = load i32, ptr %15, align 4, !tbaa !13
  %17 = and i32 %16, 1
  %18 = icmp ne i32 %17, 0
  %19 = xor i1 %18, true
  %20 = xor i1 %19, true
  %21 = zext i1 %20 to i32
  store i32 %21, ptr %6, align 4, !tbaa !4
  call void @llvm.lifetime.start.p0(i64 4, ptr %7) #8
  call void @llvm.lifetime.start.p0(i64 4, ptr %8) #8
  call void @llvm.lifetime.start.p0(i64 4, ptr %9) #8
  call void @llvm.lifetime.start.p0(i64 4, ptr %10) #8
  %22 = load ptr, ptr %3, align 8, !tbaa !8
  %23 = getelementptr inbounds nuw %struct.AVTimecode, ptr %22, i32 0, i32 0
  %24 = load i32, ptr %23, align 4, !tbaa !14
  %25 = load i32, ptr %4, align 4, !tbaa !4
  %26 = add nsw i32 %25, %24
  store i32 %26, ptr %4, align 4, !tbaa !4
  %27 = load i32, ptr %6, align 4, !tbaa !4
  %28 = icmp ne i32 %27, 0
  br i1 %28, label %29, label %35

29:                                               ; preds = %2
  %30 = load i32, ptr %4, align 4, !tbaa !4
  %31 = load ptr, ptr %3, align 8, !tbaa !8
  %32 = getelementptr inbounds nuw %struct.AVTimecode, ptr %31, i32 0, i32 3
  %33 = load i32, ptr %32, align 4, !tbaa !10
  %34 = call i32 @av_timecode_adjust_ntsc_framenum2(i32 noundef %30, i32 noundef %33)
  store i32 %34, ptr %4, align 4, !tbaa !4
  br label %35

35:                                               ; preds = %29, %2
  %36 = load i32, ptr %4, align 4, !tbaa !4
  %37 = load i32, ptr %5, align 4, !tbaa !4
  %38 = urem i32 %36, %37
  store i32 %38, ptr %10, align 4, !tbaa !4
  %39 = load i32, ptr %4, align 4, !tbaa !4
  %40 = load i32, ptr %5, align 4, !tbaa !4
  %41 = udiv i32 %39, %40
  %42 = urem i32 %41, 60
  store i32 %42, ptr %9, align 4, !tbaa !4
  %43 = load i32, ptr %4, align 4, !tbaa !4
  %44 = sext i32 %43 to i64
  %45 = load i32, ptr %5, align 4, !tbaa !4
  %46 = zext i32 %45 to i64
  %47 = mul nsw i64 %46, 60
  %48 = sdiv i64 %44, %47
  %49 = srem i64 %48, 60
  %50 = trunc i64 %49 to i32
  store i32 %50, ptr %8, align 4, !tbaa !4
  %51 = load i32, ptr %4, align 4, !tbaa !4
  %52 = sext i32 %51 to i64
  %53 = load i32, ptr %5, align 4, !tbaa !4
  %54 = zext i32 %53 to i64
  %55 = mul nsw i64 %54, 3600
  %56 = sdiv i64 %52, %55
  %57 = srem i64 %56, 24
  %58 = trunc i64 %57 to i32
  store i32 %58, ptr %7, align 4, !tbaa !4
  %59 = load ptr, ptr %3, align 8, !tbaa !8
  %60 = getelementptr inbounds nuw %struct.AVTimecode, ptr %59, i32 0, i32 2
  %61 = load i32, ptr %6, align 4, !tbaa !4
  %62 = load i32, ptr %7, align 4, !tbaa !4
  %63 = load i32, ptr %8, align 4, !tbaa !4
  %64 = load i32, ptr %9, align 4, !tbaa !4
  %65 = load i32, ptr %10, align 4, !tbaa !4
  %66 = load i64, ptr %60, align 4
  %67 = call i32 @av_timecode_get_smpte(i64 %66, i32 noundef %61, i32 noundef %62, i32 noundef %63, i32 noundef %64, i32 noundef %65)
  call void @llvm.lifetime.end.p0(i64 4, ptr %10) #8
  call void @llvm.lifetime.end.p0(i64 4, ptr %9) #8
  call void @llvm.lifetime.end.p0(i64 4, ptr %8) #8
  call void @llvm.lifetime.end.p0(i64 4, ptr %7) #8
  call void @llvm.lifetime.end.p0(i64 4, ptr %6) #8
  call void @llvm.lifetime.end.p0(i64 4, ptr %5) #8
  ret i32 %67
}