; Function Attrs: mustprogress nofree norecurse nosync nounwind willreturn memory(argmem: read) uwtable
define i32 @av_timecode_get_smpte_from_framenum(ptr noundef readonly captures(none) %0, i32 noundef %1) local_unnamed_addr #2 {
  %3 = getelementptr inbounds nuw i8, ptr %0, i64 16
  %4 = load i32, ptr %3, align 4, !tbaa !4
  %5 = getelementptr inbounds nuw i8, ptr %0, i64 4
  %6 = load i32, ptr %5, align 4, !tbaa !10
  %7 = and i32 %6, 1
  %.not = icmp eq i32 %7, 0
  %8 = load i32, ptr %0, align 4, !tbaa !11
  %9 = add nsw i32 %8, %1
  br i1 %.not, label %av_timecode_adjust_ntsc_framenum2.exit, label %10

10:                                               ; preds = %2
  %.not.i = icmp ne i32 %4, 0
  %11 = srem i32 %4, 30
  %12 = sdiv i32 %4, 30
  %13 = icmp eq i32 %11, 0
  %or.cond.i = and i1 %.not.i, %13
  br i1 %or.cond.i, label %14, label %av_timecode_adjust_ntsc_framenum2.exit

14:                                               ; preds = %10
  %15 = shl nsw i32 %12, 1
  %16 = mul nsw i32 %12, 17982
  %17 = sdiv i32 %9, %16
  %18 = srem i32 %9, %16
  %19 = mul nsw i32 %12, 18
  %20 = mul i32 %19, %17
  %21 = add i32 %20, %9
  %22 = sub nsw i32 %18, %15
  %23 = sdiv i32 %16, 10
  %24 = sdiv i32 %22, %23
  %25 = mul nsw i32 %24, %15
  %26 = add i32 %21, %25
  br label %av_timecode_adjust_ntsc_framenum2.exit

av_timecode_adjust_ntsc_framenum2.exit:           ; preds = %14, %10, %2
  %.0 = phi i32 [ %9, %2 ], [ %26, %14 ], [ %9, %10 ]
  %27 = urem i32 %.0, %4
  %28 = udiv i32 %.0, %4
  %29 = urem i32 %28, 60
  %30 = sext i32 %.0 to i64
  %31 = zext i32 %4 to i64
  %32 = mul nuw nsw i64 %31, 60
  %33 = sdiv i64 %30, %32
  %.lhs.trunc = trunc nsw i64 %33 to i32
  %34 = srem i32 %.lhs.trunc, 60
  %35 = mul nuw nsw i64 %31, 3600
  %36 = sdiv i64 %30, %35
  %.lhs.trunc20 = trunc nsw i64 %36 to i32
  %37 = srem i32 %.lhs.trunc20, 24
  %38 = getelementptr inbounds nuw i8, ptr %0, i64 8
  %39 = load i64, ptr %38, align 4
  %40 = tail call i32 @av_timecode_get_smpte(i64 %39, i32 noundef %7, i32 noundef %37, i32 noundef %34, i32 noundef %29, i32 noundef %27)
  ret i32 %40
}